; Function Attrs: mustprogress uwtable
define internal void @_ZL17toolbar_string_cbPvS_S_(ptr noundef readnone %0, ptr noundef %1, ptr noundef readonly %2) #0 personality ptr @__gxx_personality_v0 {
  %4 = alloca %class.QString, align 16
  %5 = alloca %class.QString, align 16
  %6 = icmp ne ptr %0, null
  %7 = icmp ne ptr %1, null
  %or.cond = and i1 %6, %7
  %8 = icmp ne ptr %2, null
  %or.cond3 = and i1 %or.cond, %8
  br i1 %or.cond3, label %9, label %44

9:                                                ; preds = %3
  %10 = load i32, ptr %2, align 8
  switch i32 %10, label %44 [
    i32 0, label %11
    i32 5, label %38
  ]

11:                                               ; preds = %9
  %12 = getelementptr inbounds i8, ptr %2, i64 4
  %13 = load i32, ptr %12, align 4
  %.not = icmp eq i32 %13, 0
  br i1 %.not, label %16, label %14

14:                                               ; preds = %11
  %15 = tail call noundef zeroext i1 @_ZN7QObject12blockSignalsEb(ptr noundef nonnull align 8 dereferenceable(16) %1, i1 noundef zeroext true) #16
  br label %16

16:                                               ; preds = %14, %11
  %.0 = phi i1 [ %15, %14 ], [ false, %11 ]
  %17 = getelementptr inbounds i8, ptr %2, i64 8
  %18 = load ptr, ptr %17, align 8
  call void @llvm.lifetime.start.p0(i64 24, ptr nonnull %4)
  %.not.i.i = icmp eq ptr %18, null
  br i1 %.not.i.i, label %_ZN7QStringC2EPKc.exit, label %.split.i.i

.split.i.i:                                       ; preds = %16
  %19 = tail call noundef i64 @strlen(ptr noundef nonnull dereferenceable(1) %18) #16
  br label %_ZN7QStringC2EPKc.exit

_ZN7QStringC2EPKc.exit:                           ; preds = %16, %.split.i.i
  %.sink5.i.i = phi i64 [ %19, %.split.i.i ], [ 0, %16 ]
  call void @_ZN7QString8fromUtf8E14QByteArrayView(ptr dead_on_unwind nonnull writable sret(%class.QString) align 8 %4, i64 %.sink5.i.i, ptr %18)
  %20 = load <2 x ptr>, ptr %4, align 16
  store <2 x ptr> %20, ptr %5, align 16
  %21 = getelementptr inbounds i8, ptr %5, i64 16
  %22 = getelementptr inbounds i8, ptr %4, i64 16
  %23 = load i64, ptr %22, align 16
  store i64 %23, ptr %21, align 16
  call void @llvm.lifetime.end.p0(i64 24, ptr nonnull %4)
  invoke void @_ZN9QLineEdit7setTextERK7QString(ptr noundef nonnull align 8 dereferenceable(40) %1, ptr noundef nonnull align 8 dereferenceable(24) %5)
          to label %24 unwind label %32

24:                                               ; preds = %_ZN7QStringC2EPKc.exit
  %25 = load ptr, ptr %5, align 16
  %.not.i.i.i = icmp eq ptr %25, null
  br i1 %.not.i.i.i, label %_ZN7QStringD2Ev.exit, label %_ZN17QArrayDataPointerIDsE5derefEv.exit.i.i

_ZN17QArrayDataPointerIDsE5derefEv.exit.i.i:      ; preds = %24
  %26 = atomicrmw sub ptr %25, i32 1 seq_cst, align 4
  %.not.i.i25 = icmp eq i32 %26, 1
  br i1 %.not.i.i25, label %27, label %_ZN7QStringD2Ev.exit

27:                                               ; preds = %_ZN17QArrayDataPointerIDsE5derefEv.exit.i.i
  %28 = load ptr, ptr %5, align 16
  call void @_ZN10QArrayData10deallocateEPS_xx(ptr noundef %28, i64 noundef 2, i64 noundef 8) #16
  br label %_ZN7QStringD2Ev.exit

_ZN7QStringD2Ev.exit:                             ; preds = %24, %_ZN17QArrayDataPointerIDsE5derefEv.exit.i.i, %27
  %29 = load i32, ptr %12, align 4
  %.not24 = icmp eq i32 %29, 0
  br i1 %.not24, label %44, label %30

30:                                               ; preds = %_ZN7QStringD2Ev.exit
  %31 = call noundef zeroext i1 @_ZN7QObject12blockSignalsEb(ptr noundef nonnull align 8 dereferenceable(16) %1, i1 noundef zeroext %.0) #16
  br label %44

32:                                               ; preds = %_ZN7QStringC2EPKc.exit
  %33 = landingpad { ptr, i32 }
          cleanup
  %34 = load ptr, ptr %5, align 16
  %.not.i.i.i26 = icmp eq ptr %34, null
  br i1 %.not.i.i.i26, label %_ZN7QStringD2Ev.exit29, label %_ZN17QArrayDataPointerIDsE5derefEv.exit.i.i27

_ZN17QArrayDataPointerIDsE5derefEv.exit.i.i27:    ; preds = %32
  %35 = atomicrmw sub ptr %34, i32 1 seq_cst, align 4
  %.not.i.i28 = icmp eq i32 %35, 1
  br i1 %.not.i.i28, label %36, label %_ZN7QStringD2Ev.exit29

36:                                               ; preds = %_ZN17QArrayDataPointerIDsE5derefEv.exit.i.i27
  %37 = load ptr, ptr %5, align 16
  call void @_ZN10QArrayData10deallocateEPS_xx(ptr noundef %37, i64 noundef 2, i64 noundef 8) #16
  br label %_ZN7QStringD2Ev.exit29

_ZN7QStringD2Ev.exit29:                           ; preds = %32, %_ZN17QArrayDataPointerIDsE5derefEv.exit.i.i27, %36
  resume { ptr, i32 } %33

38:                                               ; preds = %9
  %39 = getelementptr inbounds i8, ptr %2, i64 8
  %40 = load ptr, ptr %39, align 8
  %41 = ptrtoint ptr %40 to i64
  %42 = and i64 %41, 4294967295
  %43 = icmp eq i64 %42, 1
  tail call void @_ZN7QWidget10setEnabledEb(ptr noundef nonnull align 8 dereferenceable(40) %1, i1 noundef zeroext %43)
  br label %44

44:                                               ; preds = %9, %38, %_ZN7QStringD2Ev.exit, %30, %3
  ret void
}